; ModuleID = '41/830.cpp'
source_filename = "41/830.cpp"
target datalayout = "e-m:e-p270:32:32-p271:32:32-p272:64:64-i64:64-f80:128-n8:16:32:64-S128"
target triple = "x86_64-pc-linux-gnu"

%"class.std::ios_base::Init" = type { i8 }
%"class.std::basic_ostream" = type { i32 (...)**, %"class.std::basic_ios" }
%"class.std::basic_ios" = type { %"class.std::ios_base", %"class.std::basic_ostream"*, i8, i8, %"class.std::basic_streambuf"*, %"class.std::ctype"*, %"class.std::num_put"*, %"class.std::num_get"* }
%"class.std::ios_base" = type { i32 (...)**, i64, i64, i32, i32, i32, %"struct.std::ios_base::_Callback_list"*, %"struct.std::ios_base::_Words", [8 x %"struct.std::ios_base::_Words"], i32, %"struct.std::ios_base::_Words"*, %"class.std::locale" }
%"struct.std::ios_base::_Callback_list" = type { %"struct.std::ios_base::_Callback_list"*, void (i32, %"class.std::ios_base"*, i32)*, i32, i32 }
%"struct.std::ios_base::_Words" = type { i8*, i64 }
%"class.std::locale" = type { %"class.std::locale::_Impl"* }
%"class.std::locale::_Impl" = type { i32, %"class.std::locale::facet"**, i64, %"class.std::locale::facet"**, i8** }
%"class.std::locale::facet" = type <{ i32 (...)**, i32, [4 x i8] }>
%"class.std::basic_streambuf" = type { i32 (...)**, i8*, i8*, i8*, i8*, i8*, i8*, %"class.std::locale" }
%"class.std::ctype" = type <{ %"class.std::locale::facet.base", [4 x i8], %struct.__locale_struct*, i8, [7 x i8], i32*, i32*, i16*, i8, [256 x i8], [256 x i8], i8, [6 x i8] }>
%"class.std::locale::facet.base" = type <{ i32 (...)**, i32 }>
%struct.__locale_struct = type { [13 x %struct.__locale_data*], i16*, i32*, i32*, [13 x i8*] }
%struct.__locale_data = type opaque
%"class.std::num_put" = type { %"class.std::locale::facet.base", [4 x i8] }
%"class.std::num_get" = type { %"class.std::locale::facet.base", [4 x i8] }

@_ZStL8__ioinit = internal global %"class.std::ios_base::Init" zeroinitializer, align 1
@__dso_handle = external hidden global i8
@_ZSt4cout = external dso_local global %"class.std::basic_ostream", align 8
@.str = private unnamed_addr constant [2 x i8] c" \00", align 1
@llvm.global_ctors = appending global [1 x { i32, void ()*, i8* }] [{ i32, void ()*, i8* } { i32 65535, void ()* @_GLOBAL__sub_I_830.cpp, i8* null }]

; Function Attrs: noinline uwtable
define internal void @__cxx_global_var_init() #0 section ".text.startup" {
  call void @_ZNSt8ios_base4InitC1Ev(%"class.std::ios_base::Init"* @_ZStL8__ioinit)
  %1 = call i32 @__cxa_atexit(void (i8*)* bitcast (void (%"class.std::ios_base::Init"*)* @_ZNSt8ios_base4InitD1Ev to void (i8*)*), i8* getelementptr inbounds (%"class.std::ios_base::Init", %"class.std::ios_base::Init"* @_ZStL8__ioinit, i32 0, i32 0), i8* @__dso_handle) #3
  ret void
}

declare dso_local void @_ZNSt8ios_base4InitC1Ev(%"class.std::ios_base::Init"*) unnamed_addr #1

; Function Attrs: nounwind
declare dso_local void @_ZNSt8ios_base4InitD1Ev(%"class.std::ios_base::Init"*) unnamed_addr #2

; Function Attrs: nounwind
declare dso_local i32 @__cxa_atexit(void (i8*)*, i8*, i8*) #3

; Function Attrs: noinline norecurse uwtable
define dso_local i32 @main() #4 {
  %1 = alloca i32, align 4
  %2 = alloca i32, align 4
  %3 = alloca i32, align 4
  %4 = alloca i32, align 4
  %5 = alloca i32, align 4
  %6 = alloca i32, align 4
  %7 = alloca i32, align 4
  %8 = alloca i32, align 4
  %9 = alloca i32, align 4
  %10 = alloca i32, align 4
  %11 = alloca i32, align 4
  store i32 0, i32* %1, align 4
  store i32 1, i32* %2, align 4
  br label %12

12:                                               ; preds = %159, %0
  %13 = load i32, i32* %2, align 4
  %14 = icmp sle i32 %13, 5
  br i1 %14, label %15, label %162

15:                                               ; preds = %12
  store i32 1, i32* %3, align 4
  br label %16

16:                                               ; preds = %155, %15
  %17 = load i32, i32* %3, align 4
  %18 = icmp sle i32 %17, 5
  br i1 %18, label %19, label %158

19:                                               ; preds = %16
  %20 = load i32, i32* %3, align 4
  %21 = load i32, i32* %2, align 4
  %22 = icmp ne i32 %20, %21
  br i1 %22, label %23, label %154

23:                                               ; preds = %19
  store i32 1, i32* %4, align 4
  br label %24

24:                                               ; preds = %150, %23
  %25 = load i32, i32* %4, align 4
  %26 = icmp sle i32 %25, 5
  br i1 %26, label %27, label %153

27:                                               ; preds = %24
  %28 = load i32, i32* %4, align 4
  %29 = load i32, i32* %3, align 4
  %30 = icmp ne i32 %28, %29
  br i1 %30, label %31, label %149

31:                                               ; preds = %27
  %32 = load i32, i32* %4, align 4
  %33 = load i32, i32* %2, align 4
  %34 = icmp ne i32 %32, %33
  br i1 %34, label %35, label %149

35:                                               ; preds = %31
  store i32 1, i32* %5, align 4
  br label %36

36:                                               ; preds = %145, %35
  %37 = load i32, i32* %5, align 4
  %38 = icmp sle i32 %37, 5
  br i1 %38, label %39, label %148

39:                                               ; preds = %36
  %40 = load i32, i32* %5, align 4
  %41 = load i32, i32* %2, align 4
  %42 = icmp ne i32 %40, %41
  br i1 %42, label %43, label %144

43:                                               ; preds = %39
  %44 = load i32, i32* %5, align 4
  %45 = load i32, i32* %3, align 4
  %46 = icmp ne i32 %44, %45
  br i1 %46, label %47, label %144

47:                                               ; preds = %43
  %48 = load i32, i32* %5, align 4
  %49 = load i32, i32* %4, align 4
  %50 = icmp ne i32 %48, %49
  br i1 %50, label %51, label %144

51:                                               ; preds = %47
  %52 = load i32, i32* %2, align 4
  %53 = sub nsw i32 15, %52
  %54 = load i32, i32* %3, align 4
  %55 = sub nsw i32 %53, %54
  %56 = load i32, i32* %4, align 4
  %57 = sub nsw i32 %55, %56
  %58 = load i32, i32* %5, align 4
  %59 = sub nsw i32 %57, %58
  store i32 %59, i32* %6, align 4
  %60 = load i32, i32* %6, align 4
  %61 = icmp eq i32 %60, 2
  br i1 %61, label %65, label %62

62:                                               ; preds = %51
  %63 = load i32, i32* %6, align 4
  %64 = icmp eq i32 %63, 3
  br i1 %64, label %65, label %66

65:                                               ; preds = %62, %51
  br label %145

66:                                               ; preds = %62
  %67 = load i32, i32* %6, align 4
  %68 = icmp eq i32 %67, 1
  %69 = zext i1 %68 to i32
  store i32 %69, i32* %7, align 4
  %70 = load i32, i32* %3, align 4
  %71 = icmp eq i32 %70, 2
  %72 = zext i1 %71 to i32
  store i32 %72, i32* %8, align 4
  %73 = load i32, i32* %2, align 4
  %74 = icmp eq i32 %73, 5
  %75 = zext i1 %74 to i32
  store i32 %75, i32* %9, align 4
  %76 = load i32, i32* %4, align 4
  %77 = icmp ne i32 %76, 1
  %78 = zext i1 %77 to i32
  store i32 %78, i32* %10, align 4
  %79 = load i32, i32* %5, align 4
  %80 = icmp eq i32 %79, 1
  %81 = zext i1 %80 to i32
  store i32 %81, i32* %11, align 4
  %82 = load i32, i32* %2, align 4
  %83 = load i32, i32* %7, align 4
  %84 = mul nsw i32 %82, %83
  %85 = load i32, i32* %3, align 4
  %86 = load i32, i32* %8, align 4
  %87 = mul nsw i32 %85, %86
  %88 = add nsw i32 %84, %87
  %89 = load i32, i32* %4, align 4
  %90 = load i32, i32* %9, align 4
  %91 = mul nsw i32 %89, %90
  %92 = add nsw i32 %88, %91
  %93 = load i32, i32* %5, align 4
  %94 = load i32, i32* %10, align 4
  %95 = mul nsw i32 %93, %94
  %96 = add nsw i32 %92, %95
  %97 = load i32, i32* %6, align 4
  %98 = load i32, i32* %11, align 4
  %99 = mul nsw i32 %97, %98
  %100 = add nsw i32 %96, %99
  %101 = icmp eq i32 %100, 3
  br i1 %101, label %102, label %143

102:                                              ; preds = %66
  %103 = load i32, i32* %2, align 4
  %104 = load i32, i32* %7, align 4
  %105 = mul nsw i32 %103, %104
  %106 = icmp ne i32 %105, 3
  br i1 %106, label %107, label %143

107:                                              ; preds = %102
  %108 = load i32, i32* %3, align 4
  %109 = load i32, i32* %8, align 4
  %110 = mul nsw i32 %108, %109
  %111 = icmp ne i32 %110, 3
  br i1 %111, label %112, label %143

112:                                              ; preds = %107
  %113 = load i32, i32* %4, align 4
  %114 = load i32, i32* %9, align 4
  %115 = mul nsw i32 %113, %114
  %116 = icmp ne i32 %115, 3
  br i1 %116, label %117, label %143

117:                                              ; preds = %112
  %118 = load i32, i32* %5, align 4
  %119 = load i32, i32* %10, align 4
  %120 = mul nsw i32 %118, %119
  %121 = icmp ne i32 %120, 3
  br i1 %121, label %122, label %143

122:                                              ; preds = %117
  %123 = load i32, i32* %6, align 4
  %124 = load i32, i32* %11, align 4
  %125 = mul nsw i32 %123, %124
  %126 = icmp ne i32 %125, 3
  br i1 %126, label %127, label %143

127:                                              ; preds = %122
  %128 = load i32, i32* %2, align 4
  %129 = call dereferenceable(272) %"class.std::basic_ostream"* @_ZNSolsEi(%"class.std::basic_ostream"* @_ZSt4cout, i32 %128)
  %130 = call dereferenceable(272) %"class.std::basic_ostream"* @_ZStlsISt11char_traitsIcEERSt13basic_ostreamIcT_ES5_PKc(%"class.std::basic_ostream"* dereferenceable(272) %129, i8* getelementptr inbounds ([2 x i8], [2 x i8]* @.str, i64 0, i64 0))
  %131 = load i32, i32* %3, align 4
  %132 = call dereferenceable(272) %"class.std::basic_ostream"* @_ZNSolsEi(%"class.std::basic_ostream"* %130, i32 %131)
  %133 = call dereferenceable(272) %"class.std::basic_ostream"* @_ZStlsISt11char_traitsIcEERSt13basic_ostreamIcT_ES5_PKc(%"class.std::basic_ostream"* dereferenceable(272) %132, i8* getelementptr inbounds ([2 x i8], [2 x i8]* @.str, i64 0, i64 0))
  %134 = load i32, i32* %4, align 4
  %135 = call dereferenceable(272) %"class.std::basic_ostream"* @_ZNSolsEi(%"class.std::basic_ostream"* %133, i32 %134)
  %136 = call dereferenceable(272) %"class.std::basic_ostream"* @_ZStlsISt11char_traitsIcEERSt13basic_ostreamIcT_ES5_PKc(%"class.std::basic_ostream"* dereferenceable(272) %135, i8* getelementptr inbounds ([2 x i8], [2 x i8]* @.str, i64 0, i64 0))
  %137 = load i32, i32* %5, align 4
  %138 = call dereferenceable(272) %"class.std::basic_ostream"* @_ZNSolsEi(%"class.std::basic_ostream"* %136, i32 %137)
  %139 = call dereferenceable(272) %"class.std::basic_ostream"* @_ZStlsISt11char_traitsIcEERSt13basic_ostreamIcT_ES5_PKc(%"class.std::basic_ostream"* dereferenceable(272) %138, i8* getelementptr inbounds ([2 x i8], [2 x i8]* @.str, i64 0, i64 0))
  %140 = load i32, i32* %6, align 4
  %141 = call dereferenceable(272) %"class.std::basic_ostream"* @_ZNSolsEi(%"class.std::basic_ostream"* %139, i32 %140)
  %142 = call dereferenceable(272) %"class.std::basic_ostream"* @_ZNSolsEPFRSoS_E(%"class.std::basic_ostream"* %141, %"class.std::basic_ostream"* (%"class.std::basic_ostream"*)* @_ZSt4endlIcSt11char_traitsIcEERSt13basic_ostreamIT_T0_ES6_)
  br label %143

143:                                              ; preds = %127, %122, %117, %112, %107, %102, %66
  br label %144

144:                                              ; preds = %143, %47, %43, %39
  br label %145

145:                                              ; preds = %144, %65
  %146 = load i32, i32* %5, align 4
  %147 = add nsw i32 %146, 1
  store i32 %147, i32* %5, align 4
  br label %36

148:                                              ; preds = %36
  br label %149

149:                                              ; preds = %148, %31, %27
  br label %150

150:                                              ; preds = %149
  %151 = load i32, i32* %4, align 4
  %152 = add nsw i32 %151, 1
  store i32 %152, i32* %4, align 4
  br label %24

153:                                              ; preds = %24
  br label %154

154:                                              ; preds = %153, %19
  br label %155

155:                                              ; preds = %154
  %156 = load i32, i32* %3, align 4
  %157 = add nsw i32 %156, 1
  store i32 %157, i32* %3, align 4
  br label %16

158:                                              ; preds = %16
  br label %159

159:                                              ; preds = %158
  %160 = load i32, i32* %2, align 4
  %161 = add nsw i32 %160, 1
  store i32 %161, i32* %2, align 4
  br label %12

162:                                              ; preds = %12
  ret i32 0
}

declare dso_local dereferenceable(272) %"class.std::basic_ostream"* @_ZStlsISt11char_traitsIcEERSt13basic_ostreamIcT_ES5_PKc(%"class.std::basic_ostream"* dereferenceable(272), i8*) #1

declare dso_local dereferenceable(272) %"class.std::basic_ostream"* @_ZNSolsEi(%"class.std::basic_ostream"*, i32) #1

declare dso_local dereferenceable(272) %"class.std::basic_ostream"* @_ZNSolsEPFRSoS_E(%"class.std::basic_ostream"*, %"class.std::basic_ostream"* (%"class.std::basic_ostream"*)*) #1

declare dso_local dereferenceable(272) %"class.std::basic_ostream"* @_ZSt4endlIcSt11char_traitsIcEERSt13basic_ostreamIT_T0_ES6_(%"class.std::basic_ostream"* dereferenceable(272)) #1

; Function Attrs: noinline uwtable
define internal void @_GLOBAL__sub_I_830.cpp() #0 section ".text.startup" {
  call void @__cxx_global_var_init()
  ret void
}


!llvm.module.flags = !{!0}
!llvm.ident = !{!1}

!0 = !{i32 1, !"wchar_size", i32 4}
!1 = !{!"clang version 10.0.0-4ubuntu1 "}
